ccopy_reg
_reconstructor
p0
(clife
Pattern
p1
c__builtin__
object
p2
Ntp3
Rp4
(dp5
S'kind'
p6
S'Estable'
p7
sS'alive_cells'
p8
(lp9
(I3
I2
tp10
a(I2
I1
tp11
a(I2
I3
tp12
a(I3
I4
tp13
a(I1
I2
tp14
a(I4
I3
tp15
asS'name'
p16
S'Barcaza'
p17
sS'period'
p18
S''
p19
sb.