ccopy_reg
_reconstructor
p0
(clife
Pattern
p1
c__builtin__
object
p2
Ntp3
Rp4
(dp5
S'kind'
p6
S'Estable'
p7
sS'alive_cells'
p8
(lp9
(I4
I0
tp10
a(I2
I1
tp11
a(I5
I1
tp12
a(I2
I2
tp13
a(I3
I0
tp14
a(I3
I3
tp15
a(I4
I3
tp16
a(I5
I2
tp17
asS'name'
p18
S'Charca'
p19
sS'period'
p20
S''
p21
sb.