ccopy_reg
_reconstructor
p0
(clife
Pattern
p1
c__builtin__
object
p2
Ntp3
Rp4
(dp5
S'kind'
p6
S'Oscilante'
p7
sS'alive_cells'
p8
(lp9
(I6
I9
tp10
a(I6
I7
tp11
a(I5
I5
tp12
a(I4
I5
tp13
a(I7
I8
tp14
a(I8
I9
tp15
a(I3
I6
tp16
a(I5
I4
tp17
a(I3
I5
tp18
a(I4
I6
tp19
a(I8
I7
tp20
a(I6
I8
tp21
a(I3
I4
tp22
a(I5
I6
tp23
a(I7
I7
tp24
a(I4
I4
tp25
a(I7
I9
tp26
a(I8
I8
tp27
asS'name'
p28
S'Cifra 8'
p29
sS'period'
p30
S'8'
p31
sb.