ccopy_reg
_reconstructor
p0
(clife
Pattern
p1
c__builtin__
object
p2
Ntp3
Rp4
(dp5
S'kind'
p6
S'Mortal'
p7
sS'alive_cells'
p8
(lp9
(I4
I5
tp10
a(I4
I2
tp11
a(I5
I3
tp12
a(I3
I3
tp13
a(I4
I4
tp14
a(I4
I3
tp15
asS'name'
p16
S'Cruz latina'
p17
sS'period'
p18
S''
p19
sb.