ccopy_reg
_reconstructor
p0
(clife
Pattern
p1
c__builtin__
object
p2
Ntp3
Rp4
(dp5
S'kind'
p6
S'Deslizador'
p7
sS'alive_cells'
p8
(lp9
(I2
I1
tp10
a(I2
I2
tp11
a(I1
I0
tp12
a(I0
I2
tp13
a(I1
I2
tp14
asS'name'
p15
S'Deslizador'
p16
sS'period'
p17
S'4'
p18
sb.