ccopy_reg
_reconstructor
p0
(clife
Pattern
p1
c__builtin__
object
p2
Ntp3
Rp4
(dp5
S'kind'
p6
S'Estable'
p7
sS'alive_cells'
p8
(lp9
(I3
I2
tp10
a(I4
I1
tp11
a(I4
I3
tp12
a(I5
I2
tp13
asS'name'
p14
S'Tina'
p15
sS'period'
p16
S''
p17
sb.