Certificate:
    Data:
        Version: 3 (0x2)
        Serial Number: 1 (0x1)
        Signature Algorithm: sha256WithRSAEncryption
        Issuer: C=US, ST=CA, L=SanFrancisco, O=Fort-Funston, OU=MyOrganizationalUnit, CN=Fort-Funston CA/name=EasyRSA/emailAddress=me@myhost.mydomain
        Validity
            Not Before: Mar 21 22:16:26 2020 GMT
            Not After : Mar 19 22:16:26 2030 GMT
        Subject: C=US, ST=CA, L=SanFrancisco, O=Fort-Funston, OU=MyOrganizationalUnit, CN=server/name=EasyRSA/emailAddress=me@myhost.mydomain
        Subject Public Key Info:
            Public Key Algorithm: rsaEncryption
                RSA Public-Key: (2048 bit)
                Modulus:
                    00:e6:26:59:4a:6e:94:31:94:f7:03:bb:8f:08:72:
                    0d:38:7c:8c:22:32:6c:e1:2a:6e:03:09:e1:0f:38:
                    a2:3f:fb:cc:39:2c:32:78:de:af:6e:ce:24:cf:0f:
                    d5:a0:8a:dd:3c:46:87:df:2e:12:6a:91:93:60:06:
                    56:ce:a9:9d:04:4d:b1:03:02:a1:1a:a6:76:e0:f1:
                    69:86:de:33:ba:5b:d0:9c:a7:9a:51:bd:75:67:b1:
                    36:58:4b:50:d4:05:bd:6f:f2:35:e5:de:94:54:73:
                    63:1a:ee:f9:cd:13:13:34:22:34:d1:5c:f2:da:15:
                    38:be:c5:6e:f6:82:8f:1c:19:7f:0b:50:11:14:cb:
                    1e:0b:2e:e2:c2:48:eb:2f:2b:f5:d9:d6:45:56:eb:
                    1f:d0:5f:23:10:8c:cc:da:83:aa:8a:68:2a:bf:fc:
                    46:4c:e8:c1:02:f9:bb:35:5f:6b:54:34:cb:00:58:
                    63:ca:b5:18:b1:b1:16:8e:e1:9b:63:71:d4:53:90:
                    87:14:dc:d2:40:7d:d0:ed:ab:9a:55:bc:4f:5b:c6:
                    0d:64:8f:c5:20:f2:0c:03:4c:f5:84:2a:9b:09:40:
                    19:d5:b2:c4:72:7e:99:c0:59:4c:1a:1d:0a:0c:d8:
                    fe:1e:fa:01:ae:80:13:28:af:30:69:94:df:f6:36:
                    73:ff
                Exponent: 65537 (0x10001)
        X509v3 extensions:
            X509v3 Basic Constraints: 
                CA:FALSE
            Netscape Cert Type: 
                SSL Server
            Netscape Comment: 
                Easy-RSA Generated Server Certificate
            X509v3 Subject Key Identifier: 
                BC:22:A4:C0:85:82:ED:60:85:77:BA:FE:3E:B9:9F:7F:02:6E:6D:F4
            X509v3 Authority Key Identifier: 
                keyid:FA:62:2E:45:0B:4A:C2:B7:73:AC:E5:28:2C:72:3A:80:33:AB:49:6A
                DirName:/C=US/ST=CA/L=SanFrancisco/O=Fort-Funston/OU=MyOrganizationalUnit/CN=Fort-Funston CA/name=EasyRSA/emailAddress=me@myhost.mydomain
                serial:6A:96:79:E1:F2:65:19:1E:BB:45:0C:33:D7:78:48:32:35:EE:7E:45

            X509v3 Extended Key Usage: 
                TLS Web Server Authentication
            X509v3 Key Usage: 
                Digital Signature, Key Encipherment
            X509v3 Subject Alternative Name: 
                DNS:server
    Signature Algorithm: sha256WithRSAEncryption
         53:f3:99:17:47:ee:05:41:b5:68:ca:84:d7:d5:c7:35:bf:30:
         c8:16:60:8b:21:92:17:52:a2:c3:03:81:7e:3c:3e:4f:14:e6:
         1b:fa:87:4e:9f:18:c6:e2:49:94:3d:78:43:32:10:63:d1:dd:
         bf:b7:a9:30:2a:f1:ae:b3:ad:fc:d6:65:3c:a3:0c:85:43:c2:
         37:15:26:f4:48:e7:b0:84:10:b4:f9:7f:ff:92:c8:c8:e9:fc:
         82:89:51:e7:be:c2:79:5b:1d:c0:a3:03:5d:9d:51:8c:1c:15:
         7a:74:b0:9c:9d:3d:cd:31:bf:4f:79:aa:da:7d:59:19:f6:1c:
         de:0d:53:15:3b:79:f3:db:16:d0:dd:4c:d8:23:22:3d:c2:f1:
         9c:ae:57:84:44:c3:3d:d9:05:04:b5:0f:da:55:bc:e1:a1:5b:
         c9:b8:3b:2c:0a:f4:3a:4e:00:be:08:8e:e0:85:d7:35:c3:bd:
         de:42:58:40:3d:45:93:60:53:99:16:23:8d:4a:5d:e2:3d:80:
         27:7d:8f:ac:c8:f5:e3:6c:49:2a:02:ea:53:7f:c7:75:97:19:
         99:35:ec:d3:25:21:4c:fe:c0:58:da:90:3c:40:dc:a6:33:56:
         c3:e5:ee:e1:ff:72:15:35:4f:e8:49:75:26:9e:f9:b6:29:60:
         92:35:47:36
-----BEGIN CERTIFICATE-----
MIIFhzCCBG+gAwIBAgIBATANBgkqhkiG9w0BAQsFADCBtjELMAkGA1UEBhMCVVMx
CzAJBgNVBAgTAkNBMRUwEwYDVQQHEwxTYW5GcmFuY2lzY28xFTATBgNVBAoTDEZv
cnQtRnVuc3RvbjEdMBsGA1UECxMUTXlPcmdhbml6YXRpb25hbFVuaXQxGDAWBgNV
BAMTD0ZvcnQtRnVuc3RvbiBDQTEQMA4GA1UEKRMHRWFzeVJTQTEhMB8GCSqGSIb3
DQEJARYSbWVAbXlob3N0Lm15ZG9tYWluMB4XDTIwMDMyMTIyMTYyNloXDTMwMDMx
OTIyMTYyNlowga0xCzAJBgNVBAYTAlVTMQswCQYDVQQIEwJDQTEVMBMGA1UEBxMM
U2FuRnJhbmNpc2NvMRUwEwYDVQQKEwxGb3J0LUZ1bnN0b24xHTAbBgNVBAsTFE15
T3JnYW5pemF0aW9uYWxVbml0MQ8wDQYDVQQDEwZzZXJ2ZXIxEDAOBgNVBCkTB0Vh
c3lSU0ExITAfBgkqhkiG9w0BCQEWEm1lQG15aG9zdC5teWRvbWFpbjCCASIwDQYJ
KoZIhvcNAQEBBQADggEPADCCAQoCggEBAOYmWUpulDGU9wO7jwhyDTh8jCIybOEq
bgMJ4Q84oj/7zDksMnjer27OJM8P1aCK3TxGh98uEmqRk2AGVs6pnQRNsQMCoRqm
duDxaYbeM7pb0JynmlG9dWexNlhLUNQFvW/yNeXelFRzYxru+c0TEzQiNNFc8toV
OL7FbvaCjxwZfwtQERTLHgsu4sJI6y8r9dnWRVbrH9BfIxCMzNqDqopoKr/8Rkzo
wQL5uzVfa1Q0ywBYY8q1GLGxFo7hm2Nx1FOQhxTc0kB90O2rmlW8T1vGDWSPxSDy
DANM9YQqmwlAGdWyxHJ+mcBZTBodCgzY/h76Aa6AEyivMGmU3/Y2c/8CAwEAAaOC
AaUwggGhMAkGA1UdEwQCMAAwEQYJYIZIAYb4QgEBBAQDAgZAMDQGCWCGSAGG+EIB
DQQnFiVFYXN5LVJTQSBHZW5lcmF0ZWQgU2VydmVyIENlcnRpZmljYXRlMB0GA1Ud
DgQWBBS8IqTAhYLtYIV3uv4+uZ9/Am5t9DCB9gYDVR0jBIHuMIHrgBT6Yi5FC0rC
t3Os5SgscjqAM6tJaqGBvKSBuTCBtjELMAkGA1UEBhMCVVMxCzAJBgNVBAgTAkNB
MRUwEwYDVQQHEwxTYW5GcmFuY2lzY28xFTATBgNVBAoTDEZvcnQtRnVuc3RvbjEd
MBsGA1UECxMUTXlPcmdhbml6YXRpb25hbFVuaXQxGDAWBgNVBAMTD0ZvcnQtRnVu
c3RvbiBDQTEQMA4GA1UEKRMHRWFzeVJTQTEhMB8GCSqGSIb3DQEJARYSbWVAbXlo
b3N0Lm15ZG9tYWlughRqlnnh8mUZHrtFDDPXeEgyNe5+RTATBgNVHSUEDDAKBggr
BgEFBQcDATALBgNVHQ8EBAMCBaAwEQYDVR0RBAowCIIGc2VydmVyMA0GCSqGSIb3
DQEBCwUAA4IBAQBT85kXR+4FQbVoyoTX1cc1vzDIFmCLIZIXUqLDA4F+PD5PFOYb
+odOnxjG4kmUPXhDMhBj0d2/t6kwKvGus6381mU8owyFQ8I3FSb0SOewhBC0+X//
ksjI6fyCiVHnvsJ5Wx3AowNdnVGMHBV6dLCcnT3NMb9PearafVkZ9hzeDVMVO3nz
2xbQ3UzYIyI9wvGcrleERMM92QUEtQ/aVbzhoVvJuDssCvQ6TgC+CI7ghdc1w73e
QlhAPUWTYFOZFiONSl3iPYAnfY+syPXjbEkqAupTf8d1lxmZNezTJSFM/sBY2pA8
QNymM1bD5e7h/3IVNU/oSXUmnvm2KWCSNUc2
-----END CERTIFICATE-----
