ccopy_reg
_reconstructor
p0
(clife
Pattern
p1
c__builtin__
object
p2
Ntp3
Rp4
(dp5
S'kind'
p6
S'Estable'
p7
sS'alive_cells'
p8
(lp9
(I3
I2
tp10
a(I2
I1
tp11
a(I2
I3
tp12
a(I1
I2
tp13
a(I3
I3
tp14
asS'name'
p15
S'Bote'
p16
sS'period'
p17
S''
p18
sb.