ccopy_reg
_reconstructor
p0
(clife
Pattern
p1
c__builtin__
object
p2
Ntp3
Rp4
(dp5
S'kind'
p6
S'Biestable'
p7
sS'alive_cells'
p8
(lp9
(I3
I2
tp10
a(I3
I1
tp11
a(I3
I3
tp12
asS'name'
p13
S'Intermitente'
p14
sS'period'
p15
S'2'
p16
sb.