ccopy_reg
_reconstructor
p0
(clife
Pattern
p1
c__builtin__
object
p2
Ntp3
Rp4
(dp5
S'kind'
p6
S'Mortal'
p7
sS'alive_cells'
p8
(lp9
(I3
I2
tp10
a(I5
I4
tp11
a(I5
I3
tp12
a(I3
I4
tp13
a(I3
I3
tp14
a(I4
I3
tp15
a(I5
I2
tp16
asS'name'
p17
S'Letra H'
p18
sS'period'
p19
S''
p20
sb.