ccopy_reg
_reconstructor
p0
(clife
Pattern
p1
c__builtin__
object
p2
Ntp3
Rp4
(dp5
S'kind'
p6
S'Oscilante'
p7
sS'alive_cells'
p8
(lp9
(I2
I5
tp10
a(I5
I4
tp11
a(I3
I5
tp12
a(I4
I6
tp13
a(I3
I3
tp14
a(I4
I4
tp15
asS'name'
p16
S'Reloj'
p17
sS'period'
p18
S'2'
p19
sb.