Certificate:
    Data:
        Version: 3 (0x2)
        Serial Number: 268435668 (0x100000d4)
        Signature Algorithm: sha256WithRSAEncryption
        Issuer: C=DE, ST=Hessen, O=privacyidea, CN=CA001
        Validity
            Not Before: Mar 12 11:40:41 2020 GMT
            Not After : Mar 12 11:40:41 2021 GMT
        Subject: CN=selfservice,CN=user,O=realm1/emailAddress=meine
        Subject Public Key Info:
            Public Key Algorithm: rsaEncryption
                RSA Public-Key: (2048 bit)
                Modulus:
                    00:cf:3c:d4:33:0e:12:c4:e6:da:cd:b6:56:a1:1c:
                    26:bb:26:1c:8a:4a:73:a8:58:8a:b6:1e:b3:8b:99:
                    d2:1d:07:c2:92:89:79:c0:69:d8:c8:df:28:61:98:
                    1e:b3:fe:ae:2b:bd:78:a9:f7:6e:47:dc:a3:a0:16:
                    8c:85:02:c1:4e:92:fd:72:6e:f0:c8:03:29:9b:b8:
                    00:6e:c0:83:95:c8:34:20:36:9c:b3:e5:e4:e6:76:
                    73:a3:1a:ad:40:96:e0:53:54:00:ec:76:79:9a:c6:
                    0d:7e:b6:bd:29:ec:83:f3:cb:89:a4:cb:6c:00:ba:
                    0c:c5:78:0f:ff:69:b8:94:f4:04:70:43:3f:d8:9e:
                    d7:a7:fb:5d:ce:75:8e:da:e7:c4:07:b1:9d:de:6f:
                    88:4b:b6:4d:9a:cf:f9:bc:fa:9f:cd:32:6d:f6:3a:
                    0b:0d:23:42:78:ec:97:42:bf:0e:4d:60:56:e1:d3:
                    02:f2:19:cb:84:57:90:e5:70:a1:a2:83:35:86:e2:
                    da:86:9f:f9:8a:c4:79:b3:52:28:da:cb:bb:34:ca:
                    d3:da:91:4a:cf:8d:76:a2:b2:6b:9b:f9:96:fd:09:
                    2a:da:11:23:4d:f0:cb:d6:b2:b1:0e:12:6c:9a:19:
                    65:98:87:ca:e4:ee:24:ce:44:ac:90:8f:9d:1b:c5:
                    2a:9d
                Exponent: 65537 (0x10001)
        X509v3 extensions:
            X509v3 Key Usage: 
                Digital Signature, Key Encipherment
            X509v3 Basic Constraints: 
                CA:FALSE
            Netscape Cert Type: 
                SSL Server
            Netscape Comment: 
                OpenSSL Generated Server Certificate
            X509v3 Subject Key Identifier: 
                4D:07:90:AD:FF:1D:0D:E7:1A:DD:D6:2E:FA:BA:34:CB:AA:1F:24:C6
            X509v3 Authority Key Identifier: 
                keyid:F4:A7:C0:CC:91:46:AF:64:F3:91:F2:27:F8:C8:B2:6F:8A:87:32:73
                DirName:/C=DE/ST=Hessen/O=privacyidea/CN=CA001
                serial:FB:C8:EB:AC:83:CD:12:07

            X509v3 Extended Key Usage: 
                TLS Web Server Authentication
    Signature Algorithm: sha256WithRSAEncryption
         11:af:fa:a7:75:16:96:f2:bd:d4:a3:6a:65:1e:9c:64:17:f2:
         33:fc:29:83:8f:5a:ee:30:4b:9d:56:f3:96:a4:76:d4:db:b6:
         4d:c1:56:da:90:cc:dd:9d:d2:71:20:64:19:85:f7:82:37:d2:
         b3:26:e7:a9:d3:53:3a:b4:ab:fc:10:37:3d:79:19:24:2b:68:
         23:20:08:2b:04:0f:ff:bb:07:be:ab:1d:50:eb:31:07:c9:47:
         c6:04:5b:90:a1:bf:f6:e4:11:2f:32:06:57:fa:54:a6:9f:4b:
         21:75:27:0a:f9:7c:48:e5:58:28:d9:92:8f:5a:8e:d4:0b:79:
         f1:e0:e0:f1:a6:d1:1e:0d:03:06:67:9b:06:34:84:51:5c:6b:
         aa:ec:f7:97:0e:95:9e:75:1a:32:4b:a4:63:87:43:5f:9d:08:
         3b:c9:46:10:ad:bd:97:bf:29:a3:51:6b:0d:67:48:f6:82:77:
         20:d2:28:4d:d2:db:29:02:16:d0:80:67:12:e8:88:00:ff:f1:
         f1:5a:eb:a3:29:31:21:0f:31:03:b7:c0:74:f8:a0:55:95:39:
         d0:f6:19:c9:b0:cb:20:eb:d5:f6:3a:38:6a:ff:c5:77:9e:cc:
         21:e8:0d:4e:94:22:35:87:be:39:3d:f3:8a:a5:32:d2:be:37:
         ad:63:ee:2c
-----BEGIN CERTIFICATE-----
MIIEDzCCAvegAwIBAgIEEAAA1DANBgkqhkiG9w0BAQsFADBEMQswCQYDVQQGEwJE
RTEPMA0GA1UECAwGSGVzc2VuMRQwEgYDVQQKDAtwcml2YWN5aWRlYTEOMAwGA1UE
AwwFQ0EwMDEwHhcNMjAwMzEyMTE0MDQxWhcNMjEwMzEyMTE0MDQxWjA9MSUwIwYD
VQQDDBxzZWxmc2VydmljZSxDTj11c2VyLE89cmVhbG0xMRQwEgYJKoZIhvcNAQkB
FgVtZWluZTCCASIwDQYJKoZIhvcNAQEBBQADggEPADCCAQoCggEBAM881DMOEsTm
2s22VqEcJrsmHIpKc6hYirYes4uZ0h0HwpKJecBp2MjfKGGYHrP+riu9eKn3bkfc
o6AWjIUCwU6S/XJu8MgDKZu4AG7Ag5XINCA2nLPl5OZ2c6MarUCW4FNUAOx2eZrG
DX62vSnsg/PLiaTLbAC6DMV4D/9puJT0BHBDP9ie16f7Xc51jtrnxAexnd5viEu2
TZrP+bz6n80ybfY6Cw0jQnjsl0K/Dk1gVuHTAvIZy4RXkOVwoaKDNYbi2oaf+YrE
ebNSKNrLuzTK09qRSs+NdqKya5v5lv0JKtoRI03wy9aysQ4SbJoZZZiHyuTuJM5E
rJCPnRvFKp0CAwEAAaOCAQ4wggEKMAsGA1UdDwQEAwIFoDAJBgNVHRMEAjAAMBEG
CWCGSAGG+EIBAQQEAwIGQDAzBglghkgBhvhCAQ0EJhYkT3BlblNTTCBHZW5lcmF0
ZWQgU2VydmVyIENlcnRpZmljYXRlMB0GA1UdDgQWBBRNB5Ct/x0N5xrd1i76ujTL
qh8kxjB0BgNVHSMEbTBrgBT0p8DMkUavZPOR8if4yLJviocyc6FIpEYwRDELMAkG
A1UEBhMCREUxDzANBgNVBAgMBkhlc3NlbjEUMBIGA1UECgwLcHJpdmFjeWlkZWEx
DjAMBgNVBAMMBUNBMDAxggkA+8jrrIPNEgcwEwYDVR0lBAwwCgYIKwYBBQUHAwEw
DQYJKoZIhvcNAQELBQADggEBABGv+qd1FpbyvdSjamUenGQX8jP8KYOPWu4wS51W
85akdtTbtk3BVtqQzN2d0nEgZBmF94I30rMm56nTUzq0q/wQNz15GSQraCMgCCsE
D/+7B76rHVDrMQfJR8YEW5Chv/bkES8yBlf6VKafSyF1Jwr5fEjlWCjZko9ajtQL
efHg4PGm0R4NAwZnmwY0hFFca6rs95cOlZ51GjJLpGOHQ1+dCDvJRhCtvZe/KaNR
aw1nSPaCdyDSKE3S2ykCFtCAZxLoiAD/8fFa66MpMSEPMQO3wHT4oFWVOdD2Gcmw
yyDr1fY6OGr/xXeezCHoDU6UIjWHvjk984qlMtK+N61j7iw=
-----END CERTIFICATE-----
