Certificate:
    Data:
        Version: 3 (0x2)
        Serial Number: 268435667 (0x100000d3)
        Signature Algorithm: sha256WithRSAEncryption
        Issuer: C=DE, ST=Hessen, O=privacyidea, CN=CA001
        Validity
            Not Before: Mar 12 11:39:13 2020 GMT
            Not After : Mar 12 11:39:13 2021 GMT
        Subject: OU=realm1, CN=cornelius/emailAddress=user@localhost.localdomain
        Subject Public Key Info:
            Public Key Algorithm: rsaEncryption
                RSA Public-Key: (2048 bit)
                Modulus:
                    00:aa:5b:73:9f:4f:08:ae:23:9f:6e:b3:6e:c6:dc:
                    46:66:30:25:52:f8:e9:ec:90:98:c0:cb:01:44:8a:
                    ed:c7:43:83:ea:05:83:b6:88:05:57:31:d6:10:ba:
                    4a:7b:0a:38:64:67:de:d0:7d:cb:e1:bc:70:7f:5a:
                    65:a4:5b:93:8a:5f:31:8c:95:38:21:e8:d1:9f:40:
                    34:eb:34:48:2c:75:07:d2:85:43:ca:ac:0e:d5:43:
                    68:cc:e7:14:d7:3f:2b:7b:68:46:8d:fe:df:c1:0f:
                    38:90:80:84:40:5d:c8:b8:ca:95:4d:60:fe:eb:d4:
                    0c:55:74:0a:b7:f7:ca:42:d9:86:4b:82:09:b5:12:
                    1f:64:c6:35:28:ef:c6:a9:70:46:16:cb:a3:45:66:
                    b8:5b:54:6f:7a:18:c7:8a:2c:ff:57:62:14:5e:65:
                    e1:ed:36:51:51:6e:7b:05:1f:91:8d:98:b2:d5:1d:
                    11:ff:98:4b:80:99:2d:cb:02:40:ff:8a:1f:18:10:
                    01:b5:6a:d1:89:a2:a8:25:ad:46:3a:89:71:b4:53:
                    f4:d7:81:14:91:40:b0:4d:b2:66:a1:47:af:7e:74:
                    49:60:a1:48:32:87:0f:ee:23:0e:7c:e8:17:54:69:
                    b7:c6:0d:49:5d:af:ad:16:21:50:bf:52:05:c6:68:
                    a7:e5
                Exponent: 65537 (0x10001)
        X509v3 extensions:
            X509v3 Key Usage: 
                Digital Signature, Key Encipherment
            X509v3 Basic Constraints: 
                CA:FALSE
            Netscape Cert Type: 
                SSL Server
            Netscape Comment: 
                OpenSSL Generated Server Certificate
            X509v3 Subject Key Identifier: 
                1E:DA:9B:28:67:B0:18:50:23:12:B5:B3:BF:C4:AF:3A:EE:9F:A9:30
            X509v3 Authority Key Identifier: 
                keyid:F4:A7:C0:CC:91:46:AF:64:F3:91:F2:27:F8:C8:B2:6F:8A:87:32:73
                DirName:/C=DE/ST=Hessen/O=privacyidea/CN=CA001
                serial:FB:C8:EB:AC:83:CD:12:07

            X509v3 Extended Key Usage: 
                TLS Web Server Authentication
    Signature Algorithm: sha256WithRSAEncryption
         81:d7:13:8d:4f:6f:ed:a5:49:3e:c6:56:39:60:4c:1d:83:bf:
         82:ff:55:53:0c:7e:26:9c:45:cc:77:36:2b:1e:d6:01:be:d3:
         7b:d1:2f:ad:98:da:12:b5:a1:52:ed:07:e6:cd:5e:ea:7a:37:
         08:35:a2:b1:2c:3b:2d:35:72:2b:a6:7f:3e:ea:18:dc:e4:dc:
         9c:34:f5:8d:81:f6:89:40:1d:4f:e4:65:fc:12:d5:2e:9b:4d:
         1e:f7:55:f4:ef:fb:c2:d2:10:f4:f1:b6:b1:a5:11:8d:5e:c8:
         fb:05:ff:a8:b3:2a:a6:81:09:38:5e:85:4a:b4:5a:a2:07:74:
         18:da:b7:f8:b1:d1:0f:ab:34:c3:9b:44:91:56:4e:73:3f:08:
         fd:5a:c8:96:e5:35:8c:87:5b:0e:df:15:12:28:04:11:0e:89:
         70:d7:51:2a:f4:b1:42:81:7d:40:08:93:28:65:d9:13:61:e2:
         0c:05:1b:82:30:1e:51:1f:96:c9:65:13:a7:8a:ff:39:01:6d:
         15:62:12:25:35:8c:48:ba:b5:c5:31:ec:f3:e4:a2:ce:83:c4:
         4a:9e:1c:b4:4c:a5:45:e6:3a:6b:fc:7c:48:46:a6:00:c1:f8:
         b6:ac:5f:bc:bb:03:a5:45:bb:7c:28:bf:c7:ec:0f:5b:21:94:
         f1:8c:cb:8b
-----BEGIN CERTIFICATE-----
MIIEIjCCAwqgAwIBAgIEEAAA0zANBgkqhkiG9w0BAQsFADBEMQswCQYDVQQGEwJE
RTEPMA0GA1UECAwGSGVzc2VuMRQwEgYDVQQKDAtwcml2YWN5aWRlYTEOMAwGA1UE
AwwFQ0EwMDEwHhcNMjAwMzEyMTEzOTEzWhcNMjEwMzEyMTEzOTEzWjBQMQ8wDQYD
VQQLDAZyZWFsbTExEjAQBgNVBAMMCWNvcm5lbGl1czEpMCcGCSqGSIb3DQEJARYa
dXNlckBsb2NhbGhvc3QubG9jYWxkb21haW4wggEiMA0GCSqGSIb3DQEBAQUAA4IB
DwAwggEKAoIBAQCqW3OfTwiuI59us27G3EZmMCVS+OnskJjAywFEiu3HQ4PqBYO2
iAVXMdYQukp7CjhkZ97QfcvhvHB/WmWkW5OKXzGMlTgh6NGfQDTrNEgsdQfShUPK
rA7VQ2jM5xTXPyt7aEaN/t/BDziQgIRAXci4ypVNYP7r1AxVdAq398pC2YZLggm1
Eh9kxjUo78apcEYWy6NFZrhbVG96GMeKLP9XYhReZeHtNlFRbnsFH5GNmLLVHRH/
mEuAmS3LAkD/ih8YEAG1atGJoqglrUY6iXG0U/TXgRSRQLBNsmahR69+dElgoUgy
hw/uIw586BdUabfGDUldr60WIVC/UgXGaKflAgMBAAGjggEOMIIBCjALBgNVHQ8E
BAMCBaAwCQYDVR0TBAIwADARBglghkgBhvhCAQEEBAMCBkAwMwYJYIZIAYb4QgEN
BCYWJE9wZW5TU0wgR2VuZXJhdGVkIFNlcnZlciBDZXJ0aWZpY2F0ZTAdBgNVHQ4E
FgQUHtqbKGewGFAjErWzv8SvOu6fqTAwdAYDVR0jBG0wa4AU9KfAzJFGr2TzkfIn
+Miyb4qHMnOhSKRGMEQxCzAJBgNVBAYTAkRFMQ8wDQYDVQQIDAZIZXNzZW4xFDAS
BgNVBAoMC3ByaXZhY3lpZGVhMQ4wDAYDVQQDDAVDQTAwMYIJAPvI66yDzRIHMBMG
A1UdJQQMMAoGCCsGAQUFBwMBMA0GCSqGSIb3DQEBCwUAA4IBAQCB1xONT2/tpUk+
xlY5YEwdg7+C/1VTDH4mnEXMdzYrHtYBvtN70S+tmNoStaFS7QfmzV7qejcINaKx
LDstNXIrpn8+6hjc5NycNPWNgfaJQB1P5GX8EtUum00e91X07/vC0hD08baxpRGN
Xsj7Bf+osyqmgQk4XoVKtFqiB3QY2rf4sdEPqzTDm0SRVk5zPwj9WsiW5TWMh1sO
3xUSKAQRDolw11Eq9LFCgX1ACJMoZdkTYeIMBRuCMB5RH5bJZROniv85AW0VYhIl
NYxIurXFMezz5KLOg8RKnhy0TKVF5jpr/HxIRqYAwfi2rF+8uwOlRbt8KL/H7A9b
IZTxjMuL
-----END CERTIFICATE-----
