Certificate:
    Data:
        Version: 3 (0x2)
        Serial Number: 268435666 (0x100000d2)
        Signature Algorithm: sha256WithRSAEncryption
        Issuer: C=DE, ST=Hessen, O=privacyidea, CN=CA001
        Validity
            Not Before: Mar 12 11:39:13 2020 GMT
            Not After : Mar 12 11:39:13 2021 GMT
        Subject: C=DE, ST=Hessen, O=privacyidea, CN=requester.localdomain
        Subject Public Key Info:
            Public Key Algorithm: rsaEncryption
                RSA Public-Key: (2048 bit)
                Modulus:
                    00:cd:be:14:4f:fa:ce:01:3f:42:22:1b:1d:9c:af:
                    dd:92:d2:7f:db:6c:b7:3e:39:43:43:6b:13:03:f1:
                    05:f4:07:74:bc:76:69:28:0b:af:19:8e:d7:fc:e3:
                    cd:c6:58:f2:ca:7f:08:6d:53:fc:07:02:44:24:c6:
                    b4:34:4c:8c:04:fe:33:0e:40:e2:20:ba:02:73:5a:
                    f7:f5:4f:63:6e:cc:c6:b6:df:54:1d:37:39:7d:51:
                    36:26:5f:bd:dc:3f:a8:8b:6b:a2:ae:b6:9d:d6:21:
                    e7:df:41:b8:7a:28:2a:68:48:ca:a8:2d:ed:e1:e9:
                    46:5e:5a:72:6d:b4:84:38:87:91:fd:94:11:0b:28:
                    84:c6:c2:2f:2a:fb:01:f9:36:7a:09:75:d1:33:88:
                    3c:73:41:5b:c8:bf:94:89:70:a1:f0:c0:b9:2e:50:
                    53:1e:b1:17:64:69:f4:2d:81:e0:a9:0d:0e:32:e9:
                    ba:55:8a:85:f1:1b:6f:49:79:b4:7f:88:c3:0d:3e:
                    54:88:9b:3d:1f:38:8c:04:f3:ee:6a:63:2b:f5:c6:
                    db:b4:83:aa:c4:78:41:3a:7d:4b:e1:c8:3e:71:ca:
                    1b:61:59:ea:c6:c4:ca:32:5e:c9:e9:bf:12:29:e6:
                    c6:c3:63:fe:a0:55:da:7a:f1:60:98:4d:26:ed:fa:
                    70:2d
                Exponent: 65537 (0x10001)
        X509v3 extensions:
            X509v3 Key Usage: 
                Digital Signature, Key Encipherment
            X509v3 Basic Constraints: 
                CA:FALSE
            Netscape Cert Type: 
                SSL Server
            Netscape Comment: 
                OpenSSL Generated Server Certificate
            X509v3 Subject Key Identifier: 
                53:3F:ED:5D:09:07:B3:65:7B:AB:45:C9:24:5B:09:77:80:0A:96:ED
            X509v3 Authority Key Identifier: 
                keyid:F4:A7:C0:CC:91:46:AF:64:F3:91:F2:27:F8:C8:B2:6F:8A:87:32:73
                DirName:/C=DE/ST=Hessen/O=privacyidea/CN=CA001
                serial:FB:C8:EB:AC:83:CD:12:07

            X509v3 Extended Key Usage: 
                TLS Web Server Authentication
    Signature Algorithm: sha256WithRSAEncryption
         ba:90:7c:0e:ca:52:af:a9:23:e1:f1:6b:af:82:12:8c:46:99:
         85:8c:b5:a8:dc:21:a3:1a:44:98:c3:a6:34:86:22:4c:3e:46:
         aa:cb:2d:1b:81:09:62:77:0b:e6:a1:e4:c5:ab:ee:5b:52:d6:
         78:81:2c:f4:d5:24:9e:ad:af:6f:2a:83:28:d0:f7:ad:b2:ed:
         4b:e9:9d:8b:cb:d2:42:82:31:1e:f1:56:2a:39:93:ae:f4:4b:
         5a:b7:d1:46:16:22:da:ed:a6:0e:a7:95:2b:e4:a3:4c:cd:dc:
         8d:53:24:41:27:e3:20:49:f9:2e:62:7f:2d:b9:01:97:66:9f:
         b9:11:0d:1a:77:75:80:8a:04:96:ce:d9:94:78:8e:42:e0:45:
         e1:f1:67:9d:12:68:da:c0:6f:78:2e:bf:d6:b7:d4:38:2d:25:
         b8:9d:d5:eb:8e:e8:86:dc:42:1e:76:ce:be:0e:20:c4:88:c4:
         a5:da:33:25:ab:9e:5a:2f:49:12:26:64:50:b7:df:1b:09:91:
         98:37:d4:7e:3c:47:df:dd:70:25:45:02:a8:b5:2a:2d:3f:62:
         48:01:5c:b6:3e:84:5a:fb:5f:7c:f1:a2:8a:97:8a:b2:76:9b:
         8b:1a:0d:10:33:3c:0e:36:59:42:25:26:97:d7:4d:59:1f:ed:
         b4:2d:ae:16
-----BEGIN CERTIFICATE-----
MIIEJjCCAw6gAwIBAgIEEAAA0jANBgkqhkiG9w0BAQsFADBEMQswCQYDVQQGEwJE
RTEPMA0GA1UECAwGSGVzc2VuMRQwEgYDVQQKDAtwcml2YWN5aWRlYTEOMAwGA1UE
AwwFQ0EwMDEwHhcNMjAwMzEyMTEzOTEzWhcNMjEwMzEyMTEzOTEzWjBUMQswCQYD
VQQGEwJERTEPMA0GA1UECAwGSGVzc2VuMRQwEgYDVQQKDAtwcml2YWN5aWRlYTEe
MBwGA1UEAwwVcmVxdWVzdGVyLmxvY2FsZG9tYWluMIIBIjANBgkqhkiG9w0BAQEF
AAOCAQ8AMIIBCgKCAQEAzb4UT/rOAT9CIhsdnK/dktJ/22y3PjlDQ2sTA/EF9Ad0
vHZpKAuvGY7X/OPNxljyyn8IbVP8BwJEJMa0NEyMBP4zDkDiILoCc1r39U9jbszG
tt9UHTc5fVE2Jl+93D+oi2uirrad1iHn30G4eigqaEjKqC3t4elGXlpybbSEOIeR
/ZQRCyiExsIvKvsB+TZ6CXXRM4g8c0FbyL+UiXCh8MC5LlBTHrEXZGn0LYHgqQ0O
Mum6VYqF8RtvSXm0f4jDDT5UiJs9HziMBPPuamMr9cbbtIOqxHhBOn1L4cg+ccob
YVnqxsTKMl7J6b8SKebGw2P+oFXaevFgmE0m7fpwLQIDAQABo4IBDjCCAQowCwYD
VR0PBAQDAgWgMAkGA1UdEwQCMAAwEQYJYIZIAYb4QgEBBAQDAgZAMDMGCWCGSAGG
+EIBDQQmFiRPcGVuU1NMIEdlbmVyYXRlZCBTZXJ2ZXIgQ2VydGlmaWNhdGUwHQYD
VR0OBBYEFFM/7V0JB7Nle6tFySRbCXeACpbtMHQGA1UdIwRtMGuAFPSnwMyRRq9k
85HyJ/jIsm+KhzJzoUikRjBEMQswCQYDVQQGEwJERTEPMA0GA1UECAwGSGVzc2Vu
MRQwEgYDVQQKDAtwcml2YWN5aWRlYTEOMAwGA1UEAwwFQ0EwMDGCCQD7yOusg80S
BzATBgNVHSUEDDAKBggrBgEFBQcDATANBgkqhkiG9w0BAQsFAAOCAQEAupB8DspS
r6kj4fFrr4ISjEaZhYy1qNwhoxpEmMOmNIYiTD5GqsstG4EJYncL5qHkxavuW1LW
eIEs9NUknq2vbyqDKND3rbLtS+mdi8vSQoIxHvFWKjmTrvRLWrfRRhYi2u2mDqeV
K+SjTM3cjVMkQSfjIEn5LmJ/LbkBl2afuRENGnd1gIoEls7ZlHiOQuBF4fFnnRJo
2sBveC6/1rfUOC0luJ3V647ohtxCHnbOvg4gxIjEpdozJaueWi9JEiZkULffGwmR
mDfUfjxH391wJUUCqLUqLT9iSAFctj6EWvtffPGiipeKsnabixoNEDM8DjZZQiUm
l9dNWR/ttC2uFg==
-----END CERTIFICATE-----
