(lp0
(I7
I7
tp1
a(I8
I9
tp2
a(I9
I5
tp3
a(I9
I9
tp4
a(I9
I11
tp5
a(I1
I2
tp6
a(I10
I5
tp7
a(I10
I8
tp8
a(I10
I11
tp9
a(I2
I4
tp10
a(I2
I1
tp11
a(I11
I5
tp12
a(I4
I6
tp13
a(I5
I7
tp14
a(I5
I6
tp15
a(I5
I9
tp16
a(I6
I9
tp17
a.