(lp0
(I7
I12
tp1
a(I7
I3
tp2
a(I17
I7
tp3
a(I8
I3
tp4
a(I8
I12
tp5
a(I0
I1
tp6
a(I0
I7
tp7
a(I9
I4
tp8
a(I9
I11
tp9
a(I1
I13
tp10
a(I1
I2
tp11
a(I1
I7
tp12
a(I16
I7
tp13
a(I10
I4
tp14
a(I10
I5
tp15
a(I10
I10
tp16
a(I10
I11
tp17
a(I2
I12
tp18
a(I2
I8
tp19
a(I2
I9
tp20
a(I2
I6
tp21
a(I2
I7
tp22
a(I2
I3
tp23
a(I11
I9
tp24
a(I11
I8
tp25
a(I11
I12
tp26
a(I11
I3
tp27
a(I11
I7
tp28
a(I11
I6
tp29
a(I3
I5
tp30
a(I3
I4
tp31
a(I3
I11
tp32
a(I3
I10
tp33
a(I12
I13
tp34
a(I12
I7
tp35
a(I12
I2
tp36
a(I4
I4
tp37
a(I4
I11
tp38
a(I13
I7
tp39
a(I13
I1
tp40
a(I5
I3
tp41
a(I5
I12
tp42
a(I14
I0
tp43
a(I14
I7
tp44
a(I6
I12
tp45
a(I6
I13
tp46
a(I6
I0
tp47
a(I6
I1
tp48
a(I6
I2
tp49
a(I6
I3
tp50
a(I15
I7
tp51
a.