(lp0
(I7
I11
tp1
a(I7
I5
tp2
a(I8
I6
tp3
a(I8
I7
tp4
a(I8
I4
tp5
a(I8
I10
tp6
a(I8
I11
tp7
a(I8
I8
tp8
a(I8
I9
tp9
a(I9
I4
tp10
a(I9
I7
tp11
a(I9
I6
tp12
a(I9
I9
tp13
a(I9
I8
tp14
a(I9
I11
tp15
a(I9
I10
tp16
a(I10
I5
tp17
a(I10
I11
tp18
a(I11
I11
tp19
a(I11
I10
tp20
a(I11
I7
tp21
a(I11
I6
tp22
a(I12
I10
tp23
a(I12
I11
tp24
a(I12
I6
tp25
a(I12
I7
tp26
a(I5
I7
tp27
a(I5
I6
tp28
a(I5
I11
tp29
a(I5
I10
tp30
a(I6
I10
tp31
a(I6
I11
tp32
a(I6
I6
tp33
a(I6
I7
tp34
a.