(lp0
(I7
I5
tp1
a(I7
I1
tp2
a(I8
I2
tp3
a(I8
I1
tp4
a(I8
I4
tp5
a(I8
I5
tp6
a(I8
I8
tp7
a(I8
I9
tp8
a(I9
I0
tp9
a(I9
I5
tp10
a(I9
I9
tp11
a(I9
I8
tp12
a(I10
I4
tp13
a(I10
I0
tp14
a(I10
I1
tp15
a(I10
I3
tp16
a(I11
I0
tp17
a(I11
I4
tp18
a(I12
I2
tp19
a(I12
I3
tp20
a(I12
I1
tp21
a(I6
I2
tp22
a(I6
I3
tp23
a(I6
I4
tp24
a.