(lp0
(I7
I4
tp1
a(I7
I3
tp2
a(I8
I3
tp3
a(I8
I6
tp4
a(I8
I7
tp5
a(I8
I4
tp6
a(I8
I5
tp7
a(I8
I8
tp8
a(I8
I9
tp9
a(I9
I4
tp10
a(I16
I4
tp11
a(I1
I3
tp12
a(I1
I2
tp13
a(I10
I4
tp14
a(I2
I2
tp15
a(I2
I3
tp16
a(I11
I4
tp17
a(I3
I3
tp18
a(I3
I7
tp19
a(I3
I6
tp20
a(I3
I5
tp21
a(I3
I4
tp22
a(I3
I9
tp23
a(I3
I8
tp24
a(I12
I8
tp25
a(I12
I9
tp26
a(I12
I6
tp27
a(I12
I7
tp28
a(I12
I4
tp29
a(I12
I5
tp30
a(I4
I3
tp31
a(I13
I4
tp32
a(I5
I3
tp33
a(I14
I4
tp34
a(I6
I3
tp35
a(I15
I4
tp36
a.