(lp0
(I7
I11
tp1
a(I7
I9
tp2
a(I7
I4
tp3
a(I7
I2
tp4
a(I8
I2
tp5
a(I8
I11
tp6
a(I8
I9
tp7
a(I9
I2
tp8
a(I9
I9
tp9
a(I9
I11
tp10
a(I10
I4
tp11
a(I10
I2
tp12
a(I10
I9
tp13
a(I10
I11
tp14
a(I11
I11
tp15
a(I11
I8
tp16
a(I11
I2
tp17
a(I12
I10
tp18
a(I12
I3
tp19
a(I4
I6
tp20
a(I4
I7
tp21
a(I4
I4
tp22
a(I4
I5
tp23
a(I4
I8
tp24
a(I4
I9
tp25
a(I13
I9
tp26
a(I13
I8
tp27
a(I13
I5
tp28
a(I13
I4
tp29
a(I13
I7
tp30
a(I13
I6
tp31
a(I5
I3
tp32
a(I5
I10
tp33
a(I6
I8
tp34
a(I6
I11
tp35
a(I6
I2
tp36
a.